; Function Attrs: mustprogress uwtable
define dso_local void @_ZNK9struct_pb8compiler17MapFieldGenerator17get_key_type_nameB5cxx11Ev(ptr noalias sret(%"class.std::__cxx11::basic_string") align 8 %agg.result, ptr noundef nonnull align 8 dereferenceable(64) %this) local_unnamed_addr #3 align 2 {
entry:
  %d_ = getelementptr inbounds i8, ptr %this, i64 56
  %0 = load ptr, ptr %d_, align 8
  %call = tail call noundef ptr @_ZNK6google8protobuf15FieldDescriptor12message_typeEv(ptr noundef nonnull align 8 dereferenceable(152) %0)
  %fields_.i = getelementptr inbounds i8, ptr %call, i64 40
  %1 = load ptr, ptr %fields_.i, align 8
  tail call void @_ZNK9struct_pb8compiler17MapFieldGenerator23get_kv_type_name_helperB5cxx11EPKN6google8protobuf15FieldDescriptorE(ptr sret(%"class.std::__cxx11::basic_string") align 8 %agg.result, ptr noundef nonnull align 8 dereferenceable(64) %this, ptr noundef %1)
  ret void
}